target datalayout = "e-m:e-p270:32:32-p271:32:32-p272:64:64-i64:64-i128:128-f80:128-n8:16:32:64-S128"
target triple = "x86_64-pc-linux-gnu"

%struct._Node = type { %union.anon }
%union.anon = type { %struct.StrNode }
%struct.StrNode = type { %struct.NodeBase, ptr, ptr, i32, i32, [24 x i8] }
%struct.NodeBase = type { i32 }
%struct.ConsAltNode = type { %struct.NodeBase, ptr, ptr }
%struct.QtfrNode = type { %struct.NodeBase, i32, ptr, i32, i32, i32, i32, ptr, ptr, i32 }
%struct.EncloseNode = type { %struct.NodeBase, i32, i32, i32, i32, i32, ptr, i64, i64, i32, i32 }
%struct.AnchorNode = type { %struct.NodeBase, i32, ptr, i32, i32 }

; Function Attrs: nounwind sspstrong uwtable
define internal i32 @check_type_tree(ptr noundef %0, i32 noundef %1, i32 noundef %2, i32 noundef %3) #0 {
  %5 = alloca i32, align 4
  %6 = alloca ptr, align 8
  %7 = alloca i32, align 4
  %8 = alloca i32, align 4
  %9 = alloca i32, align 4
  %10 = alloca i32, align 4
  %11 = alloca i32, align 4
  %12 = alloca i32, align 4
  %13 = alloca ptr, align 8
  store ptr %0, ptr %6, align 8, !tbaa !66
  store i32 %1, ptr %7, align 4, !tbaa !7
  store i32 %2, ptr %8, align 4, !tbaa !7
  store i32 %3, ptr %9, align 4, !tbaa !7
  call void @llvm.lifetime.start.p0(i64 4, ptr %10) #11
  call void @llvm.lifetime.start.p0(i64 4, ptr %11) #11
  store i32 0, ptr %11, align 4, !tbaa !7
  %14 = load ptr, ptr %6, align 8, !tbaa !66
  %15 = getelementptr inbounds nuw %struct._Node, ptr %14, i32 0, i32 0
  %16 = getelementptr inbounds nuw %struct.NodeBase, ptr %15, i32 0, i32 0
  %17 = load i32, ptr %16, align 8, !tbaa !38
  store i32 %17, ptr %10, align 4, !tbaa !7
  %18 = load i32, ptr %10, align 4, !tbaa !7
  %19 = shl i32 1, %18
  %20 = load i32, ptr %7, align 4, !tbaa !7
  %21 = and i32 %19, %20
  %22 = icmp eq i32 %21, 0
  br i1 %22, label %23, label %24

23:                                               ; preds = %4
  store i32 1, ptr %5, align 4
  store i32 1, ptr %12, align 4
  br label %107

24:                                               ; preds = %4
  %25 = load i32, ptr %10, align 4, !tbaa !7
  switch i32 %25, label %104 [
    i32 8, label %26
    i32 9, label %26
    i32 5, label %48
    i32 6, label %57
    i32 7, label %78
  ]

26:                                               ; preds = %24, %24
  br label %27

27:                                               ; preds = %45, %26
  %28 = load ptr, ptr %6, align 8, !tbaa !66
  %29 = getelementptr inbounds nuw %struct._Node, ptr %28, i32 0, i32 0
  %30 = getelementptr inbounds nuw %struct.ConsAltNode, ptr %29, i32 0, i32 1
  %31 = load ptr, ptr %30, align 8, !tbaa !38
  %32 = load i32, ptr %7, align 4, !tbaa !7
  %33 = load i32, ptr %8, align 4, !tbaa !7
  %34 = load i32, ptr %9, align 4, !tbaa !7
  %35 = call i32 @check_type_tree(ptr noundef %31, i32 noundef %32, i32 noundef %33, i32 noundef %34)
  store i32 %35, ptr %11, align 4, !tbaa !7
  br label %36

36:                                               ; preds = %27
  %37 = load i32, ptr %11, align 4, !tbaa !7
  %38 = icmp eq i32 %37, 0
  br i1 %38, label %39, label %45

39:                                               ; preds = %36
  %40 = load ptr, ptr %6, align 8, !tbaa !66
  %41 = getelementptr inbounds nuw %struct._Node, ptr %40, i32 0, i32 0
  %42 = getelementptr inbounds nuw %struct.ConsAltNode, ptr %41, i32 0, i32 2
  %43 = load ptr, ptr %42, align 8, !tbaa !38
  store ptr %43, ptr %6, align 8, !tbaa !66
  %44 = icmp ne ptr %43, null
  br label %45

45:                                               ; preds = %39, %36
  %46 = phi i1 [ false, %36 ], [ %44, %39 ]
  br i1 %46, label %27, label %47, !llvm.loop !210

47:                                               ; preds = %45
  br label %105

48:                                               ; preds = %24
  %49 = load ptr, ptr %6, align 8, !tbaa !66
  %50 = getelementptr inbounds nuw %struct._Node, ptr %49, i32 0, i32 0
  %51 = getelementptr inbounds nuw %struct.QtfrNode, ptr %50, i32 0, i32 2
  %52 = load ptr, ptr %51, align 8, !tbaa !38
  %53 = load i32, ptr %7, align 4, !tbaa !7
  %54 = load i32, ptr %8, align 4, !tbaa !7
  %55 = load i32, ptr %9, align 4, !tbaa !7
  %56 = call i32 @check_type_tree(ptr noundef %52, i32 noundef %53, i32 noundef %54, i32 noundef %55)
  store i32 %56, ptr %11, align 4, !tbaa !7
  br label %105

57:                                               ; preds = %24
  call void @llvm.lifetime.start.p0(i64 8, ptr %13) #11
  %58 = load ptr, ptr %6, align 8, !tbaa !66
  %59 = getelementptr inbounds nuw %struct._Node, ptr %58, i32 0, i32 0
  store ptr %59, ptr %13, align 8, !tbaa !36
  %60 = load ptr, ptr %13, align 8, !tbaa !36
  %61 = getelementptr inbounds nuw %struct.EncloseNode, ptr %60, i32 0, i32 2
  %62 = load i32, ptr %61, align 8, !tbaa !133
  %63 = load i32, ptr %8, align 4, !tbaa !7
  %64 = and i32 %62, %63
  %65 = icmp eq i32 %64, 0
  br i1 %65, label %66, label %67

66:                                               ; preds = %57
  store i32 1, ptr %5, align 4
  store i32 1, ptr %12, align 4
  br label %75

67:                                               ; preds = %57
  %68 = load ptr, ptr %13, align 8, !tbaa !36
  %69 = getelementptr inbounds nuw %struct.EncloseNode, ptr %68, i32 0, i32 6
  %70 = load ptr, ptr %69, align 8, !tbaa !112
  %71 = load i32, ptr %7, align 4, !tbaa !7
  %72 = load i32, ptr %8, align 4, !tbaa !7
  %73 = load i32, ptr %9, align 4, !tbaa !7
  %74 = call i32 @check_type_tree(ptr noundef %70, i32 noundef %71, i32 noundef %72, i32 noundef %73)
  store i32 %74, ptr %11, align 4, !tbaa !7
  store i32 0, ptr %12, align 4
  br label %75

75:                                               ; preds = %67, %66
  call void @llvm.lifetime.end.p0(i64 8, ptr %13) #11
  %76 = load i32, ptr %12, align 4
  switch i32 %76, label %107 [
    i32 0, label %77
  ]

77:                                               ; preds = %75
  br label %105

78:                                               ; preds = %24
  %79 = load ptr, ptr %6, align 8, !tbaa !66
  %80 = getelementptr inbounds nuw %struct._Node, ptr %79, i32 0, i32 0
  %81 = getelementptr inbounds nuw %struct.AnchorNode, ptr %80, i32 0, i32 1
  %82 = load i32, ptr %81, align 4, !tbaa !38
  store i32 %82, ptr %10, align 4, !tbaa !7
  %83 = load i32, ptr %10, align 4, !tbaa !7
  %84 = load i32, ptr %9, align 4, !tbaa !7
  %85 = and i32 %83, %84
  %86 = icmp eq i32 %85, 0
  br i1 %86, label %87, label %88

87:                                               ; preds = %78
  store i32 1, ptr %5, align 4
  store i32 1, ptr %12, align 4
  br label %107

88:                                               ; preds = %78
  %89 = load ptr, ptr %6, align 8, !tbaa !66
  %90 = getelementptr inbounds nuw %struct._Node, ptr %89, i32 0, i32 0
  %91 = getelementptr inbounds nuw %struct.AnchorNode, ptr %90, i32 0, i32 2
  %92 = load ptr, ptr %91, align 8, !tbaa !38
  %93 = icmp ne ptr %92, null
  br i1 %93, label %94, label %103

94:                                               ; preds = %88
  %95 = load ptr, ptr %6, align 8, !tbaa !66
  %96 = getelementptr inbounds nuw %struct._Node, ptr %95, i32 0, i32 0
  %97 = getelementptr inbounds nuw %struct.AnchorNode, ptr %96, i32 0, i32 2
  %98 = load ptr, ptr %97, align 8, !tbaa !38
  %99 = load i32, ptr %7, align 4, !tbaa !7
  %100 = load i32, ptr %8, align 4, !tbaa !7
  %101 = load i32, ptr %9, align 4, !tbaa !7
  %102 = call i32 @check_type_tree(ptr noundef %98, i32 noundef %99, i32 noundef %100, i32 noundef %101)
  store i32 %102, ptr %11, align 4, !tbaa !7
  br label %103

103:                                              ; preds = %94, %88
  br label %105

104:                                              ; preds = %24
  br label %105

105:                                              ; preds = %104, %103, %77, %48, %47
  %106 = load i32, ptr %11, align 4, !tbaa !7
  store i32 %106, ptr %5, align 4
  store i32 1, ptr %12, align 4
  br label %107

107:                                              ; preds = %105, %87, %75, %23
  call void @llvm.lifetime.end.p0(i64 4, ptr %11) #11
  call void @llvm.lifetime.end.p0(i64 4, ptr %10) #11
  %108 = load i32, ptr %5, align 4
  ret i32 %108
}