; Function Attrs: nofree nosync nounwind sspstrong memory(read, inaccessiblemem: none) uwtable
define internal fastcc range(i32 0, 2) i32 @check_type_tree(ptr noundef readonly captures(none) %0, i32 noundef range(i32 2, 4) %1) unnamed_addr #12 {
  br label %tailrecurse

tailrecurse:                                      ; preds = %27, %2
  %.tr = phi ptr [ %0, %2 ], [ %29, %27 ]
  %3 = load i32, ptr %.tr, align 8, !tbaa !34
  %4 = shl nuw i32 1, %3
  %5 = and i32 %4, 2031
  %6 = icmp eq i32 %5, 0
  br i1 %6, label %.critedge, label %.lr.ph

.lr.ph:                                           ; preds = %tailrecurse, %tailrecurse.backedge
  %7 = phi i32 [ %19, %tailrecurse.backedge ], [ %3, %tailrecurse ]
  %.tr47 = phi ptr [ %.tr.be, %tailrecurse.backedge ], [ %.tr, %tailrecurse ]
  switch i32 %7, label %.critedge [
    i32 8, label %.preheader
    i32 9, label %.preheader
    i32 5, label %16
    i32 6, label %23
    i32 7, label %30
  ]

.preheader:                                       ; preds = %.lr.ph, %.lr.ph
  br label %8

8:                                                ; preds = %.preheader, %13
  %.034 = phi ptr [ %15, %13 ], [ %.tr47, %.preheader ]
  %9 = getelementptr inbounds nuw i8, ptr %.034, i64 8
  %10 = load ptr, ptr %9, align 8, !tbaa !34
  %11 = tail call fastcc i32 @check_type_tree(ptr noundef %10, i32 noundef %1)
  %12 = icmp eq i32 %11, 0
  br i1 %12, label %13, label %.critedge

13:                                               ; preds = %8
  %14 = getelementptr inbounds nuw i8, ptr %.034, i64 16
  %15 = load ptr, ptr %14, align 8, !tbaa !34
  %.not39 = icmp eq ptr %15, null
  br i1 %.not39, label %.critedge, label %8, !llvm.loop !236

16:                                               ; preds = %.lr.ph
  %17 = getelementptr inbounds nuw i8, ptr %.tr47, i64 8
  %18 = load ptr, ptr %17, align 8, !tbaa !34
  br label %tailrecurse.backedge

tailrecurse.backedge:                             ; preds = %16, %35
  %.tr.be = phi ptr [ %18, %16 ], [ %37, %35 ]
  %19 = load i32, ptr %.tr.be, align 8, !tbaa !34
  %20 = shl nuw i32 1, %19
  %21 = and i32 %20, 2031
  %22 = icmp eq i32 %21, 0
  br i1 %22, label %.critedge, label %.lr.ph

23:                                               ; preds = %.lr.ph
  %24 = getelementptr inbounds nuw i8, ptr %.tr47, i64 8
  %25 = load i32, ptr %24, align 8, !tbaa !152
  %26 = and i32 %25, %1
  %.not38 = icmp eq i32 %26, 0
  br i1 %.not38, label %.critedge, label %27

27:                                               ; preds = %23
  %28 = getelementptr inbounds nuw i8, ptr %.tr47, i64 24
  %29 = load ptr, ptr %28, align 8, !tbaa !144
  br label %tailrecurse

30:                                               ; preds = %.lr.ph
  %31 = getelementptr inbounds nuw i8, ptr %.tr47, i64 4
  %32 = load i32, ptr %31, align 4, !tbaa !34
  %33 = and i32 %32, 78823
  %34 = icmp eq i32 %33, 0
  br i1 %34, label %.critedge, label %35

35:                                               ; preds = %30
  %36 = getelementptr inbounds nuw i8, ptr %.tr47, i64 8
  %37 = load ptr, ptr %36, align 8, !tbaa !34
  %.not = icmp eq ptr %37, null
  br i1 %.not, label %.critedge, label %tailrecurse.backedge

.critedge:                                        ; preds = %tailrecurse.backedge, %30, %.lr.ph, %35, %13, %8, %tailrecurse, %23
  %.0 = phi i32 [ 1, %23 ], [ 1, %tailrecurse ], [ 1, %8 ], [ 0, %13 ], [ 1, %tailrecurse.backedge ], [ 1, %30 ], [ 0, %.lr.ph ], [ 0, %35 ]
  ret i32 %.0
}